target datalayout = "e-m:e-p270:32:32-p271:32:32-p272:64:64-i64:64-i128:128-f80:128-n8:16:32:64-S128"
target triple = "x86_64-pc-linux-gnu"

%union.pthread_mutex_t = type { %struct.__pthread_mutex_s }
%struct.__pthread_mutex_s = type { i32, i32, i32, i32, i32, i16, i16, %struct.__pthread_internal_list }
%struct.__pthread_internal_list = type { ptr, ptr }
%struct._crawler_module_t = type { ptr, %struct.crawler_client_t, ptr, i32 }
%struct.crawler_client_t = type { ptr, i32, i32, i32, ptr }
%struct.crawler_expired_data = type { %union.pthread_mutex_t, [256 x %struct.crawlerstats_t], i32, i32, i8, i8 }
%struct.crawlerstats_t = type { [61 x i64], i64, i64, i64, i64, i32, i32, i8 }

@current_time = external global i32, align 4

; Function Attrs: nounwind uwtable
define internal i32 @crawler_expired_init(ptr noundef %0, ptr noundef %1) #0 {
  %3 = alloca i32, align 4
  %4 = alloca ptr, align 8
  %5 = alloca ptr, align 8
  %6 = alloca ptr, align 8
  %7 = alloca i32, align 4
  %8 = alloca i32, align 4
  store ptr %0, ptr %4, align 8, !tbaa !4
  store ptr %1, ptr %5, align 8, !tbaa !9
  call void @llvm.lifetime.start.p0(i64 8, ptr %6) #11
  %9 = load ptr, ptr %5, align 8, !tbaa !9
  %10 = icmp ne ptr %9, null
  br i1 %10, label %11, label %18

11:                                               ; preds = %2
  %12 = load ptr, ptr %5, align 8, !tbaa !9
  store ptr %12, ptr %6, align 8, !tbaa !10
  %13 = load ptr, ptr %6, align 8, !tbaa !10
  %14 = getelementptr inbounds nuw %struct.crawler_expired_data, ptr %13, i32 0, i32 5
  store i8 1, ptr %14, align 1, !tbaa !12
  %15 = load ptr, ptr %5, align 8, !tbaa !9
  %16 = load ptr, ptr %4, align 8, !tbaa !4
  %17 = getelementptr inbounds nuw %struct._crawler_module_t, ptr %16, i32 0, i32 0
  store ptr %15, ptr %17, align 8, !tbaa !16
  br label %35

18:                                               ; preds = %2
  %19 = call noalias ptr @calloc(i64 noundef 1, i64 noundef 137272) #12
  store ptr %19, ptr %6, align 8, !tbaa !10
  %20 = load ptr, ptr %6, align 8, !tbaa !10
  %21 = icmp eq ptr %20, null
  br i1 %21, label %22, label %23

22:                                               ; preds = %18
  store i32 -1, ptr %3, align 4
  store i32 1, ptr %7, align 4
  br label %66

23:                                               ; preds = %18
  %24 = load ptr, ptr %6, align 8, !tbaa !10
  %25 = getelementptr inbounds nuw %struct.crawler_expired_data, ptr %24, i32 0, i32 0
  %26 = call i32 @pthread_mutex_init(ptr noundef %25, ptr noundef null) #11
  %27 = load ptr, ptr %6, align 8, !tbaa !10
  %28 = getelementptr inbounds nuw %struct.crawler_expired_data, ptr %27, i32 0, i32 5
  store i8 0, ptr %28, align 1, !tbaa !12
  %29 = load volatile i32, ptr @current_time, align 4, !tbaa !20
  %30 = load ptr, ptr %6, align 8, !tbaa !10
  %31 = getelementptr inbounds nuw %struct.crawler_expired_data, ptr %30, i32 0, i32 2
  store i32 %29, ptr %31, align 8, !tbaa !21
  %32 = load ptr, ptr %6, align 8, !tbaa !10
  %33 = load ptr, ptr %4, align 8, !tbaa !4
  %34 = getelementptr inbounds nuw %struct._crawler_module_t, ptr %33, i32 0, i32 0
  store ptr %32, ptr %34, align 8, !tbaa !16
  br label %35

35:                                               ; preds = %23, %11
  %36 = load ptr, ptr %6, align 8, !tbaa !10
  %37 = getelementptr inbounds nuw %struct.crawler_expired_data, ptr %36, i32 0, i32 0
  %38 = call i32 @pthread_mutex_lock(ptr noundef %37) #11
  %39 = load ptr, ptr %6, align 8, !tbaa !10
  %40 = getelementptr inbounds nuw %struct.crawler_expired_data, ptr %39, i32 0, i32 1
  call void @llvm.memset.p0.i64(ptr align 8 %40, i8 0, i64 137216, i1 false)
  call void @llvm.lifetime.start.p0(i64 4, ptr %8) #11
  store i32 0, ptr %8, align 4, !tbaa !20
  br label %41

41:                                               ; preds = %59, %35
  %42 = load i32, ptr %8, align 4, !tbaa !20
  %43 = icmp slt i32 %42, 256
  br i1 %43, label %45, label %44

44:                                               ; preds = %41
  store i32 2, ptr %7, align 4
  call void @llvm.lifetime.end.p0(i64 4, ptr %8) #11
  br label %62

45:                                               ; preds = %41
  %46 = load volatile i32, ptr @current_time, align 4, !tbaa !20
  %47 = load ptr, ptr %6, align 8, !tbaa !10
  %48 = getelementptr inbounds nuw %struct.crawler_expired_data, ptr %47, i32 0, i32 1
  %49 = load i32, ptr %8, align 4, !tbaa !20
  %50 = sext i32 %49 to i64
  %51 = getelementptr inbounds [256 x %struct.crawlerstats_t], ptr %48, i64 0, i64 %50
  %52 = getelementptr inbounds nuw %struct.crawlerstats_t, ptr %51, i32 0, i32 5
  store i32 %46, ptr %52, align 8, !tbaa !22
  %53 = load ptr, ptr %6, align 8, !tbaa !10
  %54 = getelementptr inbounds nuw %struct.crawler_expired_data, ptr %53, i32 0, i32 1
  %55 = load i32, ptr %8, align 4, !tbaa !20
  %56 = sext i32 %55 to i64
  %57 = getelementptr inbounds [256 x %struct.crawlerstats_t], ptr %54, i64 0, i64 %56
  %58 = getelementptr inbounds nuw %struct.crawlerstats_t, ptr %57, i32 0, i32 7
  store i8 0, ptr %58, align 8, !tbaa !25
  br label %59

59:                                               ; preds = %45
  %60 = load i32, ptr %8, align 4, !tbaa !20
  %61 = add nsw i32 %60, 1
  store i32 %61, ptr %8, align 4, !tbaa !20
  br label %41, !llvm.loop !26

62:                                               ; preds = %44
  %63 = load ptr, ptr %6, align 8, !tbaa !10
  %64 = getelementptr inbounds nuw %struct.crawler_expired_data, ptr %63, i32 0, i32 0
  %65 = call i32 @pthread_mutex_unlock(ptr noundef %64) #11
  store i32 0, ptr %3, align 4
  store i32 1, ptr %7, align 4
  br label %66

66:                                               ; preds = %62, %22
  call void @llvm.lifetime.end.p0(i64 8, ptr %6) #11
  %67 = load i32, ptr %3, align 4
  ret i32 %67
}