; Function Attrs: nounwind uwtable
define internal range(i32 -1, 1) i32 @crawler_expired_init(ptr noundef writeonly captures(none) %0, ptr noundef %1) #0 {
  %.not = icmp eq ptr %1, null
  br i1 %.not, label %5, label %3

3:                                                ; preds = %2
  %4 = getelementptr inbounds nuw i8, ptr %1, i64 137265
  store i8 1, ptr %4, align 1, !tbaa !4
  br label %13

5:                                                ; preds = %2
  %6 = tail call noalias dereferenceable_or_null(137272) ptr @calloc(i64 noundef 1, i64 noundef 137272) #17
  %7 = icmp eq ptr %6, null
  br i1 %7, label %23, label %8

8:                                                ; preds = %5
  %9 = tail call i32 @pthread_mutex_init(ptr noundef nonnull %6, ptr noundef null) #18
  %10 = getelementptr inbounds nuw i8, ptr %6, i64 137265
  store i8 0, ptr %10, align 1, !tbaa !4
  %11 = load volatile i32, ptr @current_time, align 4, !tbaa !10
  %12 = getelementptr inbounds nuw i8, ptr %6, i64 137256
  store i32 %11, ptr %12, align 8, !tbaa !11
  br label %13

13:                                               ; preds = %8, %3
  %storemerge = phi ptr [ %6, %8 ], [ %1, %3 ]
  store ptr %storemerge, ptr %0, align 8, !tbaa !12
  %14 = tail call i32 @pthread_mutex_lock(ptr noundef nonnull %storemerge) #18
  %15 = getelementptr inbounds nuw i8, ptr %storemerge, i64 40
  tail call void @llvm.memset.p0.i64(ptr noundef nonnull align 8 dereferenceable(137216) %15, i8 0, i64 137216, i1 false)
  br label %18

16:                                               ; preds = %18
  %17 = tail call i32 @pthread_mutex_unlock(ptr noundef nonnull %storemerge) #18
  br label %23

18:                                               ; preds = %13, %18
  %indvars.iv = phi i64 [ 0, %13 ], [ %indvars.iv.next, %18 ]
  %19 = load volatile i32, ptr @current_time, align 4, !tbaa !10
  %20 = getelementptr inbounds nuw [256 x %struct.crawlerstats_t], ptr %15, i64 0, i64 %indvars.iv
  %21 = getelementptr inbounds nuw i8, ptr %20, i64 520
  store i32 %19, ptr %21, align 8, !tbaa !17
  %22 = getelementptr inbounds nuw i8, ptr %20, i64 528
  store i8 0, ptr %22, align 8, !tbaa !20
  %indvars.iv.next = add nuw nsw i64 %indvars.iv, 1
  %exitcond.not = icmp eq i64 %indvars.iv.next, 256
  br i1 %exitcond.not, label %16, label %18, !llvm.loop !21

23:                                               ; preds = %5, %16
  %.021 = phi i32 [ 0, %16 ], [ -1, %5 ]
  ret i32 %.021
}